; Function Attrs: mustprogress nofree norecurse nosync nounwind willreturn memory(read, inaccessiblemem: none) uwtable
define internal range(i32 -1, 2) i32 @Vec_VecSortCompare2(ptr noundef readonly captures(none) %0, ptr noundef readonly captures(none) %1) #12 {
  %3 = load ptr, ptr %0, align 8
  %4 = getelementptr i8, ptr %3, i64 4
  %.val6 = load i32, ptr %4, align 4
  %5 = load ptr, ptr %1, align 8
  %6 = getelementptr i8, ptr %5, i64 4
  %.val5 = load i32, ptr %6, align 4
  %.0 = tail call i32 @llvm.scmp.i32.i32(i32 %.val5, i32 %.val6)
  ret i32 %.0
}